; Function Attrs: null_pointer_is_valid sspstrong uwtable
define internal noundef zeroext i1 @sharkd_rtd_visit_cb(ptr readnone captures(none) %0, ptr noundef %1, ptr readnone captures(none) %2) #0 {
  %4 = tail call i32 @get_rtd_proto_id(ptr noundef %1)
  %5 = tail call ptr @proto_get_protocol_filter_name(i32 noundef %4)
  %6 = tail call ptr @find_protocol_by_id(i32 noundef %4)
  %7 = tail call ptr @proto_get_protocol_short_name(ptr noundef %6)
  tail call void @json_dumper_begin_object(ptr noundef nonnull @dumper)
  tail call void (ptr, ptr, ...) @sharkd_json_value_stringf(ptr noundef nonnull @.str.83, ptr noundef nonnull @.str.176, ptr noundef %7)
  tail call void (ptr, ptr, ...) @sharkd_json_value_stringf(ptr noundef nonnull @.str.20, ptr noundef nonnull @.str.177, ptr noundef %5)
  tail call void @json_dumper_end_object(ptr noundef nonnull @dumper)
  ret i1 false
}